target datalayout = "e-m:e-p270:32:32-p271:32:32-p272:64:64-i64:64-i128:128-f80:128-n8:16:32:64-S128"
target triple = "x86_64-pc-linux-gnu"

%"class.std::__cxx11::basic_string" = type { %"struct.std::__cxx11::basic_string<char>::_Alloc_hider", i64, %union.anon }
%"struct.std::__cxx11::basic_string<char>::_Alloc_hider" = type { ptr }
%union.anon = type { i64, [8 x i8] }
%"class.mu::ParserBase" = type <{ ptr, { i64, i64 }, %"class.mu::ParserByteCode", %"class.std::vector.3", %"class.std::vector.3", %"class.std::unique_ptr", %"class.std::map", %"class.std::map", %"class.std::map", %"class.std::map", %"class.std::map.13", %"class.std::map.18", %"class.std::map.23", i8, [7 x i8], %"class.std::__cxx11::basic_string", %"class.std::__cxx11::basic_string", %"class.std::__cxx11::basic_string", %"class.std::vector.28", i32, [4 x i8] }>
%"class.mu::ParserByteCode" = type <{ i32, [4 x i8], i64, %"class.std::vector", i8, [7 x i8] }>
%"class.std::vector" = type { %"struct.std::_Vector_base" }
%"struct.std::_Vector_base" = type { %"struct.std::_Vector_base<mu::SToken, std::allocator<mu::SToken>>::_Vector_impl" }
%"struct.std::_Vector_base<mu::SToken, std::allocator<mu::SToken>>::_Vector_impl" = type { %"struct.std::_Vector_base<mu::SToken, std::allocator<mu::SToken>>::_Vector_impl_data" }
%"struct.std::_Vector_base<mu::SToken, std::allocator<mu::SToken>>::_Vector_impl_data" = type { ptr, ptr, ptr }
%"class.std::vector.3" = type { %"struct.std::_Vector_base.4" }
%"struct.std::_Vector_base.4" = type { %"struct.std::_Vector_base<std::__cxx11::basic_string<char>, std::allocator<std::__cxx11::basic_string<char>>>::_Vector_impl" }
%"struct.std::_Vector_base<std::__cxx11::basic_string<char>, std::allocator<std::__cxx11::basic_string<char>>>::_Vector_impl" = type { %"struct.std::_Vector_base<std::__cxx11::basic_string<char>, std::allocator<std::__cxx11::basic_string<char>>>::_Vector_impl_data" }
%"struct.std::_Vector_base<std::__cxx11::basic_string<char>, std::allocator<std::__cxx11::basic_string<char>>>::_Vector_impl_data" = type { ptr, ptr, ptr }
%"class.std::unique_ptr" = type { %"struct.std::__uniq_ptr_data" }
%"struct.std::__uniq_ptr_data" = type { %"class.std::__uniq_ptr_impl" }
%"class.std::__uniq_ptr_impl" = type { %"class.std::tuple" }
%"class.std::tuple" = type { %"struct.std::_Tuple_impl" }
%"struct.std::_Tuple_impl" = type { %"struct.std::_Head_base.9" }
%"struct.std::_Head_base.9" = type { ptr }
%"class.std::map" = type { %"class.std::_Rb_tree" }
%"class.std::_Rb_tree" = type { %"struct.std::_Rb_tree<std::__cxx11::basic_string<char>, std::pair<const std::__cxx11::basic_string<char>, mu::ParserCallback>, std::_Select1st<std::pair<const std::__cxx11::basic_string<char>, mu::ParserCallback>>, std::less<std::__cxx11::basic_string<char>>>::_Rb_tree_impl" }
%"struct.std::_Rb_tree<std::__cxx11::basic_string<char>, std::pair<const std::__cxx11::basic_string<char>, mu::ParserCallback>, std::_Select1st<std::pair<const std::__cxx11::basic_string<char>, mu::ParserCallback>>, std::less<std::__cxx11::basic_string<char>>>::_Rb_tree_impl" = type { %"struct.std::_Rb_tree_key_compare", %"struct.std::_Rb_tree_header" }
%"struct.std::_Rb_tree_key_compare" = type { %"struct.std::less" }
%"struct.std::less" = type { i8 }
%"struct.std::_Rb_tree_header" = type { %"struct.std::_Rb_tree_node_base", i64 }
%"struct.std::_Rb_tree_node_base" = type { i32, ptr, ptr, ptr }
%"class.std::map.13" = type { %"class.std::_Rb_tree.14" }
%"class.std::_Rb_tree.14" = type { %"struct.std::_Rb_tree<std::__cxx11::basic_string<char>, std::pair<const std::__cxx11::basic_string<char>, double>, std::_Select1st<std::pair<const std::__cxx11::basic_string<char>, double>>, std::less<std::__cxx11::basic_string<char>>>::_Rb_tree_impl" }
%"struct.std::_Rb_tree<std::__cxx11::basic_string<char>, std::pair<const std::__cxx11::basic_string<char>, double>, std::_Select1st<std::pair<const std::__cxx11::basic_string<char>, double>>, std::less<std::__cxx11::basic_string<char>>>::_Rb_tree_impl" = type { %"struct.std::_Rb_tree_key_compare", %"struct.std::_Rb_tree_header" }
%"class.std::map.18" = type { %"class.std::_Rb_tree.19" }
%"class.std::_Rb_tree.19" = type { %"struct.std::_Rb_tree<std::__cxx11::basic_string<char>, std::pair<const std::__cxx11::basic_string<char>, unsigned long>, std::_Select1st<std::pair<const std::__cxx11::basic_string<char>, unsigned long>>, std::less<std::__cxx11::basic_string<char>>>::_Rb_tree_impl" }
%"struct.std::_Rb_tree<std::__cxx11::basic_string<char>, std::pair<const std::__cxx11::basic_string<char>, unsigned long>, std::_Select1st<std::pair<const std::__cxx11::basic_string<char>, unsigned long>>, std::less<std::__cxx11::basic_string<char>>>::_Rb_tree_impl" = type { %"struct.std::_Rb_tree_key_compare", %"struct.std::_Rb_tree_header" }
%"class.std::map.23" = type { %"class.std::_Rb_tree.24" }
%"class.std::_Rb_tree.24" = type { %"struct.std::_Rb_tree<std::__cxx11::basic_string<char>, std::pair<const std::__cxx11::basic_string<char>, double *>, std::_Select1st<std::pair<const std::__cxx11::basic_string<char>, double *>>, std::less<std::__cxx11::basic_string<char>>>::_Rb_tree_impl" }
%"struct.std::_Rb_tree<std::__cxx11::basic_string<char>, std::pair<const std::__cxx11::basic_string<char>, double *>, std::_Select1st<std::pair<const std::__cxx11::basic_string<char>, double *>>, std::less<std::__cxx11::basic_string<char>>>::_Rb_tree_impl" = type { %"struct.std::_Rb_tree_key_compare", %"struct.std::_Rb_tree_header" }
%"class.std::vector.28" = type { %"struct.std::_Vector_base.29" }
%"struct.std::_Vector_base.29" = type { %"struct.std::_Vector_base<double, std::allocator<double>>::_Vector_impl" }
%"struct.std::_Vector_base<double, std::allocator<double>>::_Vector_impl" = type { %"struct.std::_Vector_base<double, std::allocator<double>>::_Vector_impl_data" }
%"struct.std::_Vector_base<double, std::allocator<double>>::_Vector_impl_data" = type { ptr, ptr, ptr }
%"struct.mu::generic_callable_type" = type { ptr, ptr }
%"struct.mu::SToken" = type { i32, %union.anon.101 }
%union.anon.101 = type { %struct.anon }
%struct.anon = type { ptr, double, double }
%struct.anon.102 = type { %"struct.mu::generic_callable_type", i32, i32 }

@_ZTIN2mu11ParserErrorE = linkonce_odr constant { ptr, ptr } { ptr getelementptr inbounds (ptr, ptr @_ZTVN10__cxxabiv117__class_type_infoE, i64 2), ptr @_ZTSN2mu11ParserErrorE }, comdat, align 8

; Function Attrs: mustprogress nounwind uwtable
define linkonce_odr noundef nonnull align 8 dereferenceable(32) ptr @_ZNKSt6vectorIN2mu6STokenESaIS1_EEixEm(ptr noundef nonnull align 8 dereferenceable(24) %0, i64 noundef %1) #0 comdat align 2 {
  %3 = alloca ptr, align 8
  %4 = alloca i64, align 8
  store ptr %0, ptr %3, align 8
  store i64 %1, ptr %4, align 8
  %5 = load ptr, ptr %3, align 8
  %6 = getelementptr inbounds %"struct.std::_Vector_base", ptr %5, i32 0, i32 0
  %7 = getelementptr inbounds %"struct.std::_Vector_base<mu::SToken, std::allocator<mu::SToken>>::_Vector_impl_data", ptr %6, i32 0, i32 0
  %8 = load ptr, ptr %7, align 8
  %9 = load i64, ptr %4, align 8
  %10 = getelementptr inbounds %"struct.mu::SToken", ptr %8, i64 %9
  ret ptr %10
}

; Function Attrs: mustprogress nounwind uwtable
define linkonce_odr noundef i64 @_ZNKSt6vectorIN2mu6STokenESaIS1_EE4sizeEv(ptr noundef nonnull align 8 dereferenceable(24) %0) #0 comdat align 2 {
  %2 = alloca ptr, align 8
  store ptr %0, ptr %2, align 8
  %3 = load ptr, ptr %2, align 8
  %4 = getelementptr inbounds %"struct.std::_Vector_base", ptr %3, i32 0, i32 0
  %5 = getelementptr inbounds %"struct.std::_Vector_base<mu::SToken, std::allocator<mu::SToken>>::_Vector_impl_data", ptr %4, i32 0, i32 1
  %6 = load ptr, ptr %5, align 8
  %7 = getelementptr inbounds %"struct.std::_Vector_base", ptr %3, i32 0, i32 0
  %8 = getelementptr inbounds %"struct.std::_Vector_base<mu::SToken, std::allocator<mu::SToken>>::_Vector_impl_data", ptr %7, i32 0, i32 0
  %9 = load ptr, ptr %8, align 8
  %10 = ptrtoint ptr %6 to i64
  %11 = ptrtoint ptr %9 to i64
  %12 = sub i64 %10, %11
  %13 = sdiv exact i64 %12, 32
  ret i64 %13
}

; Function Attrs: mustprogress uwtable
define linkonce_odr noundef double @_ZNK2mu21generic_callable_type11call_strfunILm1EJPKcEEEdDpOT0_(ptr noundef nonnull align 8 dereferenceable(16) %0, ptr noundef nonnull align 8 dereferenceable(8) %1) #6 comdat align 2 {
  %3 = alloca double, align 8
  %4 = alloca ptr, align 8
  %5 = alloca ptr, align 8
  %6 = alloca ptr, align 8
  %7 = alloca ptr, align 8
  store ptr %0, ptr %4, align 8
  store ptr %1, ptr %5, align 8
  %8 = load ptr, ptr %4, align 8
  %9 = getelementptr inbounds %"struct.mu::generic_callable_type", ptr %8, i32 0, i32 1
  %10 = load ptr, ptr %9, align 8
  %11 = icmp eq ptr %10, null
  br i1 %11, label %12, label %19

12:                                               ; preds = %2
  %13 = getelementptr inbounds %"struct.mu::generic_callable_type", ptr %8, i32 0, i32 0
  %14 = load ptr, ptr %13, align 8
  store ptr %14, ptr %6, align 8
  %15 = load ptr, ptr %6, align 8
  %16 = load ptr, ptr %5, align 8
  %17 = load ptr, ptr %16, align 8
  %18 = call noundef double %15(ptr noundef %17)
  store double %18, ptr %3, align 8
  br label %28

19:                                               ; preds = %2
  %20 = getelementptr inbounds %"struct.mu::generic_callable_type", ptr %8, i32 0, i32 0
  %21 = load ptr, ptr %20, align 8
  store ptr %21, ptr %7, align 8
  %22 = load ptr, ptr %7, align 8
  %23 = getelementptr inbounds %"struct.mu::generic_callable_type", ptr %8, i32 0, i32 1
  %24 = load ptr, ptr %23, align 8
  %25 = load ptr, ptr %5, align 8
  %26 = load ptr, ptr %25, align 8
  %27 = call noundef double %22(ptr noundef %24, ptr noundef %26)
  store double %27, ptr %3, align 8
  br label %28

28:                                               ; preds = %19, %12
  %29 = load double, ptr %3, align 8
  ret double %29
}

; Function Attrs: mustprogress nounwind uwtable
define linkonce_odr noundef nonnull align 8 dereferenceable(32) ptr @_ZNSt6vectorINSt7__cxx1112basic_stringIcSt11char_traitsIcESaIcEEESaIS5_EEixEm(ptr noundef nonnull align 8 dereferenceable(24) %0, i64 noundef %1) #0 comdat align 2 {
  %3 = alloca ptr, align 8
  %4 = alloca i64, align 8
  store ptr %0, ptr %3, align 8
  store i64 %1, ptr %4, align 8
  %5 = load ptr, ptr %3, align 8
  %6 = getelementptr inbounds %"struct.std::_Vector_base.4", ptr %5, i32 0, i32 0
  %7 = getelementptr inbounds %"struct.std::_Vector_base<std::__cxx11::basic_string<char>, std::allocator<std::__cxx11::basic_string<char>>>::_Vector_impl_data", ptr %6, i32 0, i32 0
  %8 = load ptr, ptr %7, align 8
  %9 = load i64, ptr %4, align 8
  %10 = getelementptr inbounds %"class.std::__cxx11::basic_string", ptr %8, i64 %9
  ret ptr %10
}

; Function Attrs: mustprogress uwtable
define linkonce_odr noundef double @_ZNK2mu21generic_callable_type8call_funILm0EJEEEdDpOT0_(ptr noundef nonnull align 8 dereferenceable(16) %0) #6 comdat align 2 {
  %2 = alloca double, align 8
  %3 = alloca ptr, align 8
  %4 = alloca ptr, align 8
  %5 = alloca ptr, align 8
  store ptr %0, ptr %3, align 8
  %6 = load ptr, ptr %3, align 8
  %7 = getelementptr inbounds %"struct.mu::generic_callable_type", ptr %6, i32 0, i32 1
  %8 = load ptr, ptr %7, align 8
  %9 = icmp eq ptr %8, null
  br i1 %9, label %10, label %15

10:                                               ; preds = %1
  %11 = getelementptr inbounds %"struct.mu::generic_callable_type", ptr %6, i32 0, i32 0
  %12 = load ptr, ptr %11, align 8
  store ptr %12, ptr %4, align 8
  %13 = load ptr, ptr %4, align 8
  %14 = call noundef double %13()
  store double %14, ptr %2, align 8
  br label %22

15:                                               ; preds = %1
  %16 = getelementptr inbounds %"struct.mu::generic_callable_type", ptr %6, i32 0, i32 0
  %17 = load ptr, ptr %16, align 8
  store ptr %17, ptr %5, align 8
  %18 = load ptr, ptr %5, align 8
  %19 = getelementptr inbounds %"struct.mu::generic_callable_type", ptr %6, i32 0, i32 1
  %20 = load ptr, ptr %19, align 8
  %21 = call noundef double %18(ptr noundef %20)
  store double %21, ptr %2, align 8
  br label %22

22:                                               ; preds = %15, %10
  %23 = load double, ptr %2, align 8
  ret double %23
}

; Function Attrs: mustprogress uwtable
define linkonce_odr noundef ptr @_ZNK2mu14ParserByteCode7GetBaseEv(ptr noundef nonnull align 8 dereferenceable(48) %0) #6 comdat align 2 personality ptr @__gxx_personality_v0 {
  %2 = alloca ptr, align 8
  %3 = alloca ptr, align 8
  %4 = alloca i32, align 4
  store ptr %0, ptr %2, align 8
  %5 = load ptr, ptr %2, align 8
  %6 = getelementptr inbounds %"class.mu::ParserByteCode", ptr %5, i32 0, i32 3
  %7 = call noundef i64 @_ZNKSt6vectorIN2mu6STokenESaIS1_EE4sizeEv(ptr noundef nonnull align 8 dereferenceable(24) %6) #4
  %8 = icmp eq i64 %7, 0
  br i1 %8, label %9, label %16

9:                                                ; preds = %1
  %10 = call ptr @__cxa_allocate_exception(i64 112) #4
  invoke void @_ZN2mu11ParserErrorC1ENS_11EErrorCodesE(ptr noundef nonnull align 8 dereferenceable(112) %10, i32 noundef 39)
          to label %11 unwind label %12

11:                                               ; preds = %9
  call void @__cxa_throw(ptr %10, ptr @_ZTIN2mu11ParserErrorE, ptr @_ZN2mu11ParserErrorD1Ev) #21
  unreachable

12:                                               ; preds = %9
  %13 = landingpad { ptr, i32 }
          cleanup
  %14 = extractvalue { ptr, i32 } %13, 0
  store ptr %14, ptr %3, align 8
  %15 = extractvalue { ptr, i32 } %13, 1
  store i32 %15, ptr %4, align 4
  call void @__cxa_free_exception(ptr %10) #4
  br label %19

16:                                               ; preds = %1
  %17 = getelementptr inbounds %"class.mu::ParserByteCode", ptr %5, i32 0, i32 3
  %18 = call noundef nonnull align 8 dereferenceable(32) ptr @_ZNKSt6vectorIN2mu6STokenESaIS1_EEixEm(ptr noundef nonnull align 8 dereferenceable(24) %17, i64 noundef 0) #4
  ret ptr %18

19:                                               ; preds = %12
  %20 = load ptr, ptr %3, align 8
  %21 = load i32, ptr %4, align 4
  %22 = insertvalue { ptr, i32 } poison, ptr %20, 0
  %23 = insertvalue { ptr, i32 } %22, i32 %21, 1
  resume { ptr, i32 } %23
}

; Function Attrs: mustprogress uwtable
define noundef double @_ZNK2mu10ParserBase17ParseCmdCodeShortEv(ptr noundef nonnull align 8 dereferenceable(596) %0) #6 align 2 personality ptr @__gxx_personality_v0 {
  %2 = alloca double, align 8
  %3 = alloca ptr, align 8
  %4 = alloca ptr, align 8
  %5 = alloca double, align 8
  %6 = alloca ptr, align 8
  %7 = alloca ptr, align 8
  %8 = alloca i32, align 4
  store ptr %0, ptr %3, align 8
  %9 = load ptr, ptr %3, align 8
  %10 = getelementptr inbounds %"class.mu::ParserBase", ptr %9, i32 0, i32 2
  %11 = call noundef ptr @_ZNK2mu14ParserByteCode7GetBaseEv(ptr noundef nonnull align 8 dereferenceable(48) %10)
  store ptr %11, ptr %4, align 8
  %12 = load ptr, ptr %4, align 8
  %13 = getelementptr inbounds %"struct.mu::SToken", ptr %12, i32 0, i32 0
  %14 = load i32, ptr %13, align 8
  switch i32 %14, label %87 [
    i32 21, label %15
    i32 20, label %20
    i32 25, label %26
    i32 22, label %41
    i32 23, label %50
    i32 24, label %61
    i32 26, label %74
    i32 27, label %79
  ]

15:                                               ; preds = %1
  %16 = load ptr, ptr %4, align 8
  %17 = getelementptr inbounds %"struct.mu::SToken", ptr %16, i32 0, i32 1
  %18 = getelementptr inbounds %struct.anon, ptr %17, i32 0, i32 2
  %19 = load double, ptr %18, align 8
  store double %19, ptr %2, align 8
  br label %94

20:                                               ; preds = %1
  %21 = load ptr, ptr %4, align 8
  %22 = getelementptr inbounds %"struct.mu::SToken", ptr %21, i32 0, i32 1
  %23 = getelementptr inbounds %struct.anon, ptr %22, i32 0, i32 0
  %24 = load ptr, ptr %23, align 8
  %25 = load double, ptr %24, align 8
  store double %25, ptr %2, align 8
  br label %94

26:                                               ; preds = %1
  %27 = load ptr, ptr %4, align 8
  %28 = getelementptr inbounds %"struct.mu::SToken", ptr %27, i32 0, i32 1
  %29 = getelementptr inbounds %struct.anon, ptr %28, i32 0, i32 0
  %30 = load ptr, ptr %29, align 8
  %31 = load double, ptr %30, align 8
  %32 = load ptr, ptr %4, align 8
  %33 = getelementptr inbounds %"struct.mu::SToken", ptr %32, i32 0, i32 1
  %34 = getelementptr inbounds %struct.anon, ptr %33, i32 0, i32 1
  %35 = load double, ptr %34, align 8
  %36 = load ptr, ptr %4, align 8
  %37 = getelementptr inbounds %"struct.mu::SToken", ptr %36, i32 0, i32 1
  %38 = getelementptr inbounds %struct.anon, ptr %37, i32 0, i32 2
  %39 = load double, ptr %38, align 8
  %40 = call double @llvm.fmuladd.f64(double %31, double %35, double %39)
  store double %40, ptr %2, align 8
  br label %94

41:                                               ; preds = %1
  %42 = load ptr, ptr %4, align 8
  %43 = getelementptr inbounds %"struct.mu::SToken", ptr %42, i32 0, i32 1
  %44 = getelementptr inbounds %struct.anon, ptr %43, i32 0, i32 0
  %45 = load ptr, ptr %44, align 8
  %46 = load double, ptr %45, align 8
  store double %46, ptr %5, align 8
  %47 = load double, ptr %5, align 8
  %48 = load double, ptr %5, align 8
  %49 = fmul double %47, %48
  store double %49, ptr %2, align 8
  br label %94

50:                                               ; preds = %1
  %51 = load ptr, ptr %4, align 8
  %52 = getelementptr inbounds %"struct.mu::SToken", ptr %51, i32 0, i32 1
  %53 = getelementptr inbounds %struct.anon, ptr %52, i32 0, i32 0
  %54 = load ptr, ptr %53, align 8
  %55 = load double, ptr %54, align 8
  store double %55, ptr %5, align 8
  %56 = load double, ptr %5, align 8
  %57 = load double, ptr %5, align 8
  %58 = fmul double %56, %57
  %59 = load double, ptr %5, align 8
  %60 = fmul double %58, %59
  store double %60, ptr %2, align 8
  br label %94

61:                                               ; preds = %1
  %62 = load ptr, ptr %4, align 8
  %63 = getelementptr inbounds %"struct.mu::SToken", ptr %62, i32 0, i32 1
  %64 = getelementptr inbounds %struct.anon, ptr %63, i32 0, i32 0
  %65 = load ptr, ptr %64, align 8
  %66 = load double, ptr %65, align 8
  store double %66, ptr %5, align 8
  %67 = load double, ptr %5, align 8
  %68 = load double, ptr %5, align 8
  %69 = fmul double %67, %68
  %70 = load double, ptr %5, align 8
  %71 = fmul double %69, %70
  %72 = load double, ptr %5, align 8
  %73 = fmul double %71, %72
  store double %73, ptr %2, align 8
  br label %94

74:                                               ; preds = %1
  %75 = load ptr, ptr %4, align 8
  %76 = getelementptr inbounds %"struct.mu::SToken", ptr %75, i32 0, i32 1
  %77 = getelementptr inbounds %struct.anon.102, ptr %76, i32 0, i32 0
  %78 = call noundef double @_ZNK2mu21generic_callable_type8call_funILm0EJEEEdDpOT0_(ptr noundef nonnull align 8 dereferenceable(16) %77)
  store double %78, ptr %2, align 8
  br label %94

79:                                               ; preds = %1
  %80 = load ptr, ptr %4, align 8
  %81 = getelementptr inbounds %"struct.mu::SToken", ptr %80, i32 0, i32 1
  %82 = getelementptr inbounds %struct.anon.102, ptr %81, i32 0, i32 0
  %83 = getelementptr inbounds %"class.mu::ParserBase", ptr %9, i32 0, i32 3
  %84 = call noundef nonnull align 8 dereferenceable(32) ptr @_ZNSt6vectorINSt7__cxx1112basic_stringIcSt11char_traitsIcESaIcEEESaIS5_EEixEm(ptr noundef nonnull align 8 dereferenceable(24) %83, i64 noundef 0) #4
  %85 = call noundef ptr @_ZNKSt7__cxx1112basic_stringIcSt11char_traitsIcESaIcEE5c_strEv(ptr noundef nonnull align 8 dereferenceable(32) %84) #4
  store ptr %85, ptr %6, align 8
  %86 = call noundef double @_ZNK2mu21generic_callable_type11call_strfunILm1EJPKcEEEdDpOT0_(ptr noundef nonnull align 8 dereferenceable(16) %82, ptr noundef nonnull align 8 dereferenceable(8) %6)
  store double %86, ptr %2, align 8
  br label %94

87:                                               ; preds = %1
  %88 = call ptr @__cxa_allocate_exception(i64 112) #4
  invoke void @_ZN2mu11ParserErrorC1ENS_11EErrorCodesE(ptr noundef nonnull align 8 dereferenceable(112) %88, i32 noundef 39)
          to label %89 unwind label %90

89:                                               ; preds = %87
  call void @__cxa_throw(ptr %88, ptr @_ZTIN2mu11ParserErrorE, ptr @_ZN2mu11ParserErrorD1Ev) #21
  unreachable

90:                                               ; preds = %87
  %91 = landingpad { ptr, i32 }
          cleanup
  %92 = extractvalue { ptr, i32 } %91, 0
  store ptr %92, ptr %7, align 8
  %93 = extractvalue { ptr, i32 } %91, 1
  store i32 %93, ptr %8, align 4
  call void @__cxa_free_exception(ptr %88) #4
  br label %96

94:                                               ; preds = %79, %74, %61, %50, %41, %26, %20, %15
  %95 = load double, ptr %2, align 8
  ret double %95

96:                                               ; preds = %90
  %97 = load ptr, ptr %7, align 8
  %98 = load i32, ptr %8, align 4
  %99 = insertvalue { ptr, i32 } poison, ptr %97, 0
  %100 = insertvalue { ptr, i32 } %99, i32 %98, 1
  resume { ptr, i32 } %100
}