; Function Attrs: mustprogress uwtable
define noundef double @_ZNK2mu10ParserBase17ParseCmdCodeShortEv(ptr nocapture noundef nonnull readonly align 8 dereferenceable(596) %0) #7 align 2 personality ptr @__gxx_personality_v0 {
  %2 = getelementptr inbounds i8, ptr %0, i64 40
  %3 = getelementptr inbounds i8, ptr %0, i64 48
  %4 = load ptr, ptr %3, align 8
  %5 = load ptr, ptr %2, align 8
  %6 = icmp eq ptr %4, %5
  br i1 %6, label %7, label %_ZNK2mu14ParserByteCode7GetBaseEv.exit

7:                                                ; preds = %1
  %8 = tail call ptr @__cxa_allocate_exception(i64 112) #23
  invoke void @_ZN2mu11ParserErrorC1ENS_11EErrorCodesE(ptr noundef nonnull align 8 dereferenceable(112) %8, i32 noundef 39)
          to label %9 unwind label %10

9:                                                ; preds = %7
  tail call void @__cxa_throw(ptr nonnull %8, ptr nonnull @_ZTIN2mu11ParserErrorE, ptr nonnull @_ZN2mu11ParserErrorD1Ev) #32
  unreachable

common.resume:                                    ; preds = %73, %10
  %.sink = phi ptr [ %71, %73 ], [ %8, %10 ]
  %common.resume.op = phi { ptr, i32 } [ %74, %73 ], [ %11, %10 ]
  tail call void @__cxa_free_exception(ptr %.sink) #23
  resume { ptr, i32 } %common.resume.op

10:                                               ; preds = %7
  %11 = landingpad { ptr, i32 }
          cleanup
  br label %common.resume

_ZNK2mu14ParserByteCode7GetBaseEv.exit:           ; preds = %1
  %12 = load i32, ptr %5, align 8
  switch i32 %12, label %70 [
    i32 21, label %13
    i32 20, label %16
    i32 25, label %20
    i32 22, label %29
    i32 23, label %34
    i32 24, label %40
    i32 26, label %47
    i32 27, label %57
  ]

13:                                               ; preds = %_ZNK2mu14ParserByteCode7GetBaseEv.exit
  %14 = getelementptr inbounds i8, ptr %5, i64 24
  %15 = load double, ptr %14, align 8
  br label %_ZNK2mu21generic_callable_type8call_funILm0EJEEEdDpOT0_.exit

16:                                               ; preds = %_ZNK2mu14ParserByteCode7GetBaseEv.exit
  %17 = getelementptr inbounds i8, ptr %5, i64 8
  %18 = load ptr, ptr %17, align 8
  %19 = load double, ptr %18, align 8
  br label %_ZNK2mu21generic_callable_type8call_funILm0EJEEEdDpOT0_.exit

20:                                               ; preds = %_ZNK2mu14ParserByteCode7GetBaseEv.exit
  %21 = getelementptr inbounds i8, ptr %5, i64 8
  %22 = load ptr, ptr %21, align 8
  %23 = load double, ptr %22, align 8
  %24 = getelementptr inbounds i8, ptr %5, i64 16
  %25 = load double, ptr %24, align 8
  %26 = getelementptr inbounds i8, ptr %5, i64 24
  %27 = load double, ptr %26, align 8
  %28 = tail call double @llvm.fmuladd.f64(double %23, double %25, double %27)
  br label %_ZNK2mu21generic_callable_type8call_funILm0EJEEEdDpOT0_.exit

29:                                               ; preds = %_ZNK2mu14ParserByteCode7GetBaseEv.exit
  %30 = getelementptr inbounds i8, ptr %5, i64 8
  %31 = load ptr, ptr %30, align 8
  %32 = load double, ptr %31, align 8
  %33 = fmul double %32, %32
  br label %_ZNK2mu21generic_callable_type8call_funILm0EJEEEdDpOT0_.exit

34:                                               ; preds = %_ZNK2mu14ParserByteCode7GetBaseEv.exit
  %35 = getelementptr inbounds i8, ptr %5, i64 8
  %36 = load ptr, ptr %35, align 8
  %37 = load double, ptr %36, align 8
  %38 = fmul double %37, %37
  %39 = fmul double %37, %38
  br label %_ZNK2mu21generic_callable_type8call_funILm0EJEEEdDpOT0_.exit

40:                                               ; preds = %_ZNK2mu14ParserByteCode7GetBaseEv.exit
  %41 = getelementptr inbounds i8, ptr %5, i64 8
  %42 = load ptr, ptr %41, align 8
  %43 = load double, ptr %42, align 8
  %44 = fmul double %43, %43
  %45 = fmul double %43, %44
  %46 = fmul double %43, %45
  br label %_ZNK2mu21generic_callable_type8call_funILm0EJEEEdDpOT0_.exit

47:                                               ; preds = %_ZNK2mu14ParserByteCode7GetBaseEv.exit
  %48 = getelementptr inbounds i8, ptr %5, i64 8
  %49 = getelementptr inbounds i8, ptr %5, i64 16
  %50 = load ptr, ptr %49, align 8
  %51 = icmp eq ptr %50, null
  %52 = load ptr, ptr %48, align 8
  br i1 %51, label %53, label %55

53:                                               ; preds = %47
  %54 = tail call noundef double %52()
  br label %_ZNK2mu21generic_callable_type8call_funILm0EJEEEdDpOT0_.exit

55:                                               ; preds = %47
  %56 = tail call noundef double %52(ptr noundef nonnull %50)
  br label %_ZNK2mu21generic_callable_type8call_funILm0EJEEEdDpOT0_.exit

57:                                               ; preds = %_ZNK2mu14ParserByteCode7GetBaseEv.exit
  %58 = getelementptr inbounds i8, ptr %5, i64 8
  %59 = getelementptr inbounds i8, ptr %0, i64 72
  %60 = load ptr, ptr %59, align 8
  %61 = tail call noundef ptr @_ZNKSt7__cxx1112basic_stringIcSt11char_traitsIcESaIcEE5c_strEv(ptr noundef nonnull align 8 dereferenceable(32) %60) #23
  %62 = getelementptr inbounds i8, ptr %5, i64 16
  %63 = load ptr, ptr %62, align 8
  %64 = icmp eq ptr %63, null
  %65 = load ptr, ptr %58, align 8
  br i1 %64, label %66, label %68

66:                                               ; preds = %57
  %67 = tail call noundef double %65(ptr noundef %61)
  br label %_ZNK2mu21generic_callable_type8call_funILm0EJEEEdDpOT0_.exit

68:                                               ; preds = %57
  %69 = tail call noundef double %65(ptr noundef nonnull %63, ptr noundef %61)
  br label %_ZNK2mu21generic_callable_type8call_funILm0EJEEEdDpOT0_.exit

70:                                               ; preds = %_ZNK2mu14ParserByteCode7GetBaseEv.exit
  %71 = tail call ptr @__cxa_allocate_exception(i64 112) #23
  invoke void @_ZN2mu11ParserErrorC1ENS_11EErrorCodesE(ptr noundef nonnull align 8 dereferenceable(112) %71, i32 noundef 39)
          to label %72 unwind label %73

72:                                               ; preds = %70
  tail call void @__cxa_throw(ptr nonnull %71, ptr nonnull @_ZTIN2mu11ParserErrorE, ptr nonnull @_ZN2mu11ParserErrorD1Ev) #32
  unreachable

73:                                               ; preds = %70
  %74 = landingpad { ptr, i32 }
          cleanup
  br label %common.resume

_ZNK2mu21generic_callable_type8call_funILm0EJEEEdDpOT0_.exit: ; preds = %68, %66, %55, %53, %40, %34, %29, %20, %16, %13
  %.0 = phi double [ %46, %40 ], [ %39, %34 ], [ %33, %29 ], [ %28, %20 ], [ %19, %16 ], [ %15, %13 ], [ %54, %53 ], [ %56, %55 ], [ %67, %66 ], [ %69, %68 ]
  ret double %.0
}